; Function Attrs: nounwind uwtable
define internal i32 @drsuapi_dissect_DsExecuteKCC_response(ptr noundef %0, i32 noundef %1, ptr noundef %2, ptr noundef %3, ptr noundef initializes((80, 88)) %4, ptr noundef %5) #0 {
  %7 = alloca i32, align 4
  %8 = getelementptr inbounds nuw i8, ptr %4, i64 80
  store ptr @.str.1715, ptr %8, align 8
  %9 = load i32, ptr @hf_drsuapi_werror, align 4
  %10 = call i32 @dissect_ndr_uint32(ptr noundef %0, i32 noundef %1, ptr noundef %2, ptr noundef %3, ptr noundef %4, ptr noundef %5, i32 noundef %9, ptr noundef nonnull %7) #5
  %11 = load i32, ptr %7, align 4
  %.not = icmp eq i32 %11, 0
  br i1 %.not, label %16, label %12

12:                                               ; preds = %6
  %13 = getelementptr inbounds nuw i8, ptr %2, i64 8
  %14 = load ptr, ptr %13, align 8
  %15 = call ptr @val_to_str(i32 noundef %11, ptr noundef nonnull @WERR_errors, ptr noundef nonnull @.str.1731) #5
  call void (ptr, i32, ptr, ...) @col_append_fstr(ptr noundef %14, i32 noundef 25, ptr noundef nonnull @.str.1730, ptr noundef %15) #5
  br label %16

16:                                               ; preds = %12, %6
  ret i32 %10
}